ARM GAS  C:\Users\marlowea\AppData\Local\Temp\cc3kbnrh.s 			page 1


   1              		.syntax unified
   2              		.cpu cortex-m3
   3              		.fpu softvfp
   4              		.eabi_attribute 20, 1
   5              		.eabi_attribute 21, 1
   6              		.eabi_attribute 23, 3
   7              		.eabi_attribute 24, 1
   8              		.eabi_attribute 25, 1
   9              		.eabi_attribute 26, 1
  10              		.eabi_attribute 30, 1
  11              		.eabi_attribute 34, 1
  12              		.eabi_attribute 18, 4
  13              		.thumb
  14              		.syntax unified
  15              		.file	"main.c"
  16              		.text
  17              	.Ltext0:
  18              		.cfi_sections	.debug_frame
  19              		.section	.text.TIMER_RX_ISR,"ax",%progbits
  20              		.align	2
  21              		.global	TIMER_RX_ISR
  22              		.thumb
  23              		.thumb_func
  24              		.type	TIMER_RX_ISR, %function
  25              	TIMER_RX_ISR:
  26              	.LFB63:
  27              		.file 1 "main.c"
   1:main.c        **** /* ========================================
   2:main.c        ****  *
   3:main.c        ****  * Copyright YOUR COMPANY, THE YEAR
   4:main.c        ****  * All Rights Reserved
   5:main.c        ****  * UNPUBLISHED, LICENSED SOFTWARE.
   6:main.c        ****  *
   7:main.c        ****  * CONFIDENTIAL AND PROPRIETARY INFORMATION
   8:main.c        ****  * WHICH IS THE PROPERTY OF your company.
   9:main.c        ****  *
  10:main.c        ****  * ========================================
  11:main.c        **** */
  12:main.c        **** #include "project.h"
  13:main.c        **** 
  14:main.c        **** typedef enum state {idleState, collisionState, busyState} State;
  15:main.c        **** 
  16:main.c        **** State systemState = idleState;
  17:main.c        **** 
  18:main.c        **** _Bool lowFlag = 0;
  19:main.c        **** //Address constants
  20:main.c        **** #define ADDR1_Start 16
  21:main.c        **** #define ADDR2_Start 25
  22:main.c        **** #define ADDR3_Start 28
  23:main.c        **** #define ADDR_length 2
  24:main.c        **** #define BROADCAST 0
  25:main.c        **** #define PROTOCOL_VERSION 0x01
  26:main.c        **** 
  27:main.c        **** //CRC constants
  28:main.c        **** #define CRC_USE 128 //crcs not used
  29:main.c        **** #define HEADER_CRC 0b1110111 
  30:main.c        **** 
ARM GAS  C:\Users\marlowea\AppData\Local\Temp\cc3kbnrh.s 			page 2


  31:main.c        **** //period and counter for timer
  32:main.c        **** #define COLL_PERIOD     52
  33:main.c        **** #define COLL_COUNTER    51
  34:main.c        **** #define IDLE_PERIOD     830
  35:main.c        **** #define IDLE_COUNTER    829
  36:main.c        **** //Receive timer stuff
  37:main.c        **** #define RX_PERIOD   52
  38:main.c        **** #define RX_COUNTER  51
  39:main.c        **** //transmit timer stuff
  40:main.c        **** #define TX_PERIOD     47 //gives 0.50ms or 500us for unipolar-rz at 1000bps
  41:main.c        **** #define TX_COUNTER    46 //empirically tuned...
  42:main.c        **** //serial buffer size
  43:main.c        **** #define SERIAL_BUFFER_SIZE 500
  44:main.c        **** //serial buffer
  45:main.c        **** unsigned char SERIAL_BUFFER[SERIAL_BUFFER_SIZE];
  46:main.c        **** unsigned char SERIAL_RX_BUFFER[SERIAL_BUFFER_SIZE];
  47:main.c        **** int SERIAL_POS = 0;
  48:main.c        **** int SERIAL_RX_POS = 0;
  49:main.c        **** int UART_RX_DATA_READ_OUT = 0;
  50:main.c        **** //flag to determine if the UART is connected
  51:main.c        **** int uartConnected = 0;
  52:main.c        **** //data cache for later use
  53:main.c        **** unsigned char CONVERTED_DATA[SERIAL_BUFFER_SIZE][16];
  54:main.c        **** int dataConvertedReadOutCount = 0;
  55:main.c        **** char currentChar;
  56:main.c        **** int dataSize;
  57:main.c        **** int TX_Bit_Counter = 0; //keeps track of what would be a for loop in the ISR
  58:main.c        **** int count = 0; //keeps track of which bit we're on
  59:main.c        **** unsigned char RX_DATA[16]; //receieved data buffer
  60:main.c        **** int RX_Bit_Counter = 0;
  61:main.c        **** char RX_Char;
  62:main.c        **** int RX_Lock = 0;
  63:main.c        **** int bitConCatCount = 0;
  64:main.c        **** unsigned char TX_Addr = 0; //transmit dest address
  65:main.c        **** unsigned char TX_length = 0; //transmit length
  66:main.c        **** 
  67:main.c        **** CY_ISR(TIMER_RX_ISR){
  28              		.loc 1 67 0
  29              		.cfi_startproc
  30              		@ args = 0, pretend = 0, frame = 0
  31              		@ frame_needed = 0, uses_anonymous_args = 0
  32 0000 38B5     		push	{r3, r4, r5, lr}
  33              		.cfi_def_cfa_offset 16
  34              		.cfi_offset 3, -16
  35              		.cfi_offset 4, -12
  36              		.cfi_offset 5, -8
  37              		.cfi_offset 14, -4
  38              	.LVL0:
  68:main.c        ****     char characterRX = 0;
  69:main.c        ****     
  70:main.c        ****     TIMER_RX_STATUS; //clear stat
  39              		.loc 1 70 0
  40 0002 224B     		ldr	r3, .L11
  41 0004 1B78     		ldrb	r3, [r3]	@ zero_extendqisi2
  71:main.c        ****     //only receive data in c
  72:main.c        ****     if(systemState != collisionState){
  42              		.loc 1 72 0
ARM GAS  C:\Users\marlowea\AppData\Local\Temp\cc3kbnrh.s 			page 3


  43 0006 224B     		ldr	r3, .L11+4
  44 0008 1B78     		ldrb	r3, [r3]	@ zero_extendqisi2
  45 000a 012B     		cmp	r3, #1
  46 000c 0BD0     		beq	.L2
  73:main.c        ****         TIMER_RX_Start();
  47              		.loc 1 73 0
  48 000e FFF7FEFF 		bl	TIMER_RX_Start
  49              	.LVL1:
  74:main.c        ****         RX_DATA[RX_Bit_Counter] = Rx_Read(); //read bit
  50              		.loc 1 74 0
  51 0012 1F4C     		ldr	r4, .L11+4
  52 0014 6568     		ldr	r5, [r4, #4]
  53 0016 FFF7FEFF 		bl	Rx_Read
  54              	.LVL2:
  55 001a 1E4B     		ldr	r3, .L11+8
  56 001c 5855     		strb	r0, [r3, r5]
  75:main.c        ****         ++RX_Bit_Counter;
  57              		.loc 1 75 0
  58 001e 6368     		ldr	r3, [r4, #4]
  59 0020 0133     		adds	r3, r3, #1
  60 0022 6360     		str	r3, [r4, #4]
  61 0024 07E0     		b	.L3
  62              	.L2:
  76:main.c        ****         
  77:main.c        ****     }else{
  78:main.c        ****         //reset buffers when in collision 
  79:main.c        ****         RX_Bit_Counter = 0;   
  63              		.loc 1 79 0
  64 0026 1A4C     		ldr	r4, .L11+4
  65 0028 0025     		movs	r5, #0
  66 002a 6560     		str	r5, [r4, #4]
  80:main.c        ****         SERIAL_RX_POS = 0;
  67              		.loc 1 80 0
  68 002c A560     		str	r5, [r4, #8]
  81:main.c        ****         UART_RX_DATA_READ_OUT = 0;
  69              		.loc 1 81 0
  70 002e E560     		str	r5, [r4, #12]
  82:main.c        ****         TIMER_RX_Stop();
  71              		.loc 1 82 0
  72 0030 FFF7FEFF 		bl	TIMER_RX_Stop
  73              	.LVL3:
  83:main.c        ****         RX_Lock = 0;
  74              		.loc 1 83 0
  75 0034 2561     		str	r5, [r4, #16]
  76              	.L3:
  84:main.c        ****     }
  85:main.c        ****     //reset bit counter if we intook all the bits
  86:main.c        ****     if(RX_Bit_Counter >= 15 ){
  77              		.loc 1 86 0
  78 0036 164B     		ldr	r3, .L11+4
  79 0038 5B68     		ldr	r3, [r3, #4]
  80 003a 0E2B     		cmp	r3, #14
  81 003c 24DD     		ble	.L1
  87:main.c        ****         RX_Bit_Counter = 0;
  82              		.loc 1 87 0
  83 003e 144D     		ldr	r5, .L11+4
  84 0040 0024     		movs	r4, #0
ARM GAS  C:\Users\marlowea\AppData\Local\Temp\cc3kbnrh.s 			page 4


  85 0042 6C60     		str	r4, [r5, #4]
  88:main.c        ****         TIMER_RX_Stop();
  86              		.loc 1 88 0
  87 0044 FFF7FEFF 		bl	TIMER_RX_Stop
  88              	.LVL4:
  89:main.c        ****         RX_Lock = 0;
  89              		.loc 1 89 0
  90 0048 2C61     		str	r4, [r5, #16]
  90:main.c        ****         TP_RX_SMPL_Write(0); //turn off test point, so we can measure time 
  91              		.loc 1 90 0
  92 004a 2046     		mov	r0, r4
  93 004c FFF7FEFF 		bl	TP_RX_SMPL_Write
  94              	.LVL5:
  95              	.LBB2:
  91:main.c        ****         
  92:main.c        ****         for(int x = 15; x >= 0; x--){
  96              		.loc 1 92 0
  97 0050 0F23     		movs	r3, #15
  98              	.LBE2:
  68:main.c        ****     
  99              		.loc 1 68 0
 100 0052 2046     		mov	r0, r4
 101              	.LBB3:
 102              		.loc 1 92 0
 103 0054 10E0     		b	.L5
 104              	.LVL6:
 105              	.L8:
  93:main.c        ****             if(x == 15){
 106              		.loc 1 93 0
 107 0056 0F2B     		cmp	r3, #15
 108 0058 00D1     		bne	.L6
  94:main.c        ****              characterRX = 0x00; //account for start bit   
 109              		.loc 1 94 0
 110 005a 0020     		movs	r0, #0
 111              	.LVL7:
 112              	.L6:
  95:main.c        ****             }
  96:main.c        ****             if(x % 2 != 0){
 113              		.loc 1 96 0
 114 005c 13F0010F 		tst	r3, #1
 115 0060 09D0     		beq	.L7
  97:main.c        ****                 characterRX = (characterRX | (RX_DATA[x] << (bitConCatCount-1)));
 116              		.loc 1 97 0
 117 0062 0C4A     		ldr	r2, .L11+8
 118 0064 D15C     		ldrb	r1, [r2, r3]	@ zero_extendqisi2
 119 0066 0A4C     		ldr	r4, .L11+4
 120 0068 6269     		ldr	r2, [r4, #20]
 121 006a 551E     		subs	r5, r2, #1
 122 006c A940     		lsls	r1, r1, r5
 123 006e 0843     		orrs	r0, r0, r1
 124              	.LVL8:
 125 0070 C0B2     		uxtb	r0, r0
 126              	.LVL9:
  98:main.c        ****                 //UART_PutChar((RX_DATA[x])+0x30);
  99:main.c        ****                 ++bitConCatCount;
 127              		.loc 1 99 0
 128 0072 0132     		adds	r2, r2, #1
ARM GAS  C:\Users\marlowea\AppData\Local\Temp\cc3kbnrh.s 			page 5


 129 0074 6261     		str	r2, [r4, #20]
 130              	.L7:
  92:main.c        ****             if(x == 15){
 131              		.loc 1 92 0 discriminator 2
 132 0076 013B     		subs	r3, r3, #1
 133              	.LVL10:
 134              	.L5:
  92:main.c        ****             if(x == 15){
 135              		.loc 1 92 0 is_stmt 0 discriminator 1
 136 0078 002B     		cmp	r3, #0
 137 007a ECDA     		bge	.L8
 138              	.LBE3:
 100:main.c        ****             }
 101:main.c        ****         }
 102:main.c        ****         SERIAL_RX_BUFFER[SERIAL_RX_POS] = characterRX;
 139              		.loc 1 102 0 is_stmt 1
 140 007c 044A     		ldr	r2, .L11+4
 141 007e 9368     		ldr	r3, [r2, #8]
 142              	.LVL11:
 143 0080 0549     		ldr	r1, .L11+12
 144 0082 C854     		strb	r0, [r1, r3]
 103:main.c        ****         ++SERIAL_RX_POS;
 145              		.loc 1 103 0
 146 0084 0133     		adds	r3, r3, #1
 147 0086 9360     		str	r3, [r2, #8]
 148              	.LVL12:
 149              	.L1:
 150 0088 38BD     		pop	{r3, r4, r5, pc}
 151              	.L12:
 152 008a 00BF     		.align	2
 153              	.L11:
 154 008c 67650040 		.word	1073767783
 155 0090 00000000 		.word	.LANCHOR0
 156 0094 00000000 		.word	RX_DATA
 157 0098 00000000 		.word	SERIAL_RX_BUFFER
 158              		.cfi_endproc
 159              	.LFE63:
 160              		.size	TIMER_RX_ISR, .-TIMER_RX_ISR
 161              		.section	.text.Timer_TX_ISR_HANDLER,"ax",%progbits
 162              		.align	2
 163              		.global	Timer_TX_ISR_HANDLER
 164              		.thumb
 165              		.thumb_func
 166              		.type	Timer_TX_ISR_HANDLER, %function
 167              	Timer_TX_ISR_HANDLER:
 168              	.LFB64:
 104:main.c        ****        
 105:main.c        ****     }
 106:main.c        **** }
 107:main.c        **** 
 108:main.c        **** CY_ISR(Timer_TX_ISR_HANDLER)
 109:main.c        **** {
 169              		.loc 1 109 0
 170              		.cfi_startproc
 171              		@ args = 0, pretend = 0, frame = 0
 172              		@ frame_needed = 0, uses_anonymous_args = 0
 173 0000 08B5     		push	{r3, lr}
ARM GAS  C:\Users\marlowea\AppData\Local\Temp\cc3kbnrh.s 			page 6


 174              		.cfi_def_cfa_offset 8
 175              		.cfi_offset 3, -8
 176              		.cfi_offset 14, -4
 110:main.c        **** 	Timer_TX_STATUS; //clear TX timer
 177              		.loc 1 110 0
 178 0002 324B     		ldr	r3, .L21
 179 0004 1B78     		ldrb	r3, [r3]	@ zero_extendqisi2
 111:main.c        **** 	//get data
 112:main.c        **** 	currentChar = SERIAL_BUFFER[SERIAL_POS];
 180              		.loc 1 112 0
 181 0006 324B     		ldr	r3, .L21+4
 182 0008 9B69     		ldr	r3, [r3, #24]
 183 000a 324A     		ldr	r2, .L21+8
 184 000c D25C     		ldrb	r2, [r2, r3]	@ zero_extendqisi2
 185 000e 3249     		ldr	r1, .L21+12
 186 0010 0A70     		strb	r2, [r1]
 113:main.c        **** 
 114:main.c        **** 	if((SERIAL_POS < dataSize) && systemState == idleState){ 
 187              		.loc 1 114 0
 188 0012 3249     		ldr	r1, .L21+16
 189 0014 0968     		ldr	r1, [r1]
 190 0016 8B42     		cmp	r3, r1
 191 0018 57DA     		bge	.L13
 192              		.loc 1 114 0 is_stmt 0 discriminator 1
 193 001a 2D4B     		ldr	r3, .L21+4
 194 001c 1B78     		ldrb	r3, [r3]	@ zero_extendqisi2
 195 001e 002B     		cmp	r3, #0
 196 0020 53D1     		bne	.L13
 115:main.c        **** 	//encode into Unipolar-RZ
 116:main.c        **** 	
 117:main.c        **** 	//Data to be transmitted. This represents one byte of data and will
 118:main.c        **** 	//be encoded in unipolar RZ. For every bit there will be 2 bits, and there are 8 bits
 119:main.c        **** 	
 120:main.c        **** 		if(TX_Bit_Counter == 0){
 197              		.loc 1 120 0 is_stmt 1
 198 0022 2B4B     		ldr	r3, .L21+4
 199 0024 DB69     		ldr	r3, [r3, #28]
 200 0026 5BB9     		cbnz	r3, .L15
 121:main.c        **** 			TX_Write(1);
 201              		.loc 1 121 0
 202 0028 0120     		movs	r0, #1
 203 002a FFF7FEFF 		bl	TX_Write
 204              	.LVL13:
 122:main.c        **** 			CONVERTED_DATA[SERIAL_POS][TX_Bit_Counter] = 0x31;
 205              		.loc 1 122 0
 206 002e 284A     		ldr	r2, .L21+4
 207 0030 9169     		ldr	r1, [r2, #24]
 208 0032 D269     		ldr	r2, [r2, #28]
 209 0034 2A4B     		ldr	r3, .L21+20
 210 0036 03EB0113 		add	r3, r3, r1, lsl #4
 211 003a 3121     		movs	r1, #49
 212 003c 9954     		strb	r1, [r3, r2]
 213 003e 31E0     		b	.L16
 214              	.L15:
 123:main.c        **** 		}else if(TX_Bit_Counter%2 != 0){
 215              		.loc 1 123 0
 216 0040 13F0010F 		tst	r3, #1
ARM GAS  C:\Users\marlowea\AppData\Local\Temp\cc3kbnrh.s 			page 7


 217 0044 0BD0     		beq	.L17
 124:main.c        **** 			TX_Write(0);
 218              		.loc 1 124 0
 219 0046 0020     		movs	r0, #0
 220 0048 FFF7FEFF 		bl	TX_Write
 221              	.LVL14:
 125:main.c        **** 			CONVERTED_DATA[SERIAL_POS][TX_Bit_Counter] = 0x30;
 222              		.loc 1 125 0
 223 004c 204A     		ldr	r2, .L21+4
 224 004e 9169     		ldr	r1, [r2, #24]
 225 0050 D269     		ldr	r2, [r2, #28]
 226 0052 234B     		ldr	r3, .L21+20
 227 0054 03EB0113 		add	r3, r3, r1, lsl #4
 228 0058 3021     		movs	r1, #48
 229 005a 9954     		strb	r1, [r3, r2]
 230 005c 22E0     		b	.L16
 231              	.L17:
 126:main.c        **** 		}else{
 127:main.c        **** 			//see if a 1 exists at the bit of the char, otherwise write a 0 out
 128:main.c        **** 			//this should transmit MSB first
 129:main.c        **** 			if(currentChar & (1<<(6-count))){
 232              		.loc 1 129 0
 233 005e 1C4B     		ldr	r3, .L21+4
 234 0060 1B6A     		ldr	r3, [r3, #32]
 235 0062 C3F10603 		rsb	r3, r3, #6
 236 0066 1A41     		asrs	r2, r2, r3
 237 0068 12F0010F 		tst	r2, #1
 238 006c 0BD0     		beq	.L18
 130:main.c        **** 				TX_Write(1);
 239              		.loc 1 130 0
 240 006e 0120     		movs	r0, #1
 241 0070 FFF7FEFF 		bl	TX_Write
 242              	.LVL15:
 131:main.c        **** 				CONVERTED_DATA[SERIAL_POS][TX_Bit_Counter] = 0x31;
 243              		.loc 1 131 0
 244 0074 164A     		ldr	r2, .L21+4
 245 0076 9169     		ldr	r1, [r2, #24]
 246 0078 D269     		ldr	r2, [r2, #28]
 247 007a 194B     		ldr	r3, .L21+20
 248 007c 03EB0113 		add	r3, r3, r1, lsl #4
 249 0080 3121     		movs	r1, #49
 250 0082 9954     		strb	r1, [r3, r2]
 251 0084 0AE0     		b	.L19
 252              	.L18:
 132:main.c        **** 			}else{
 133:main.c        **** 				TX_Write(0);
 253              		.loc 1 133 0
 254 0086 0020     		movs	r0, #0
 255 0088 FFF7FEFF 		bl	TX_Write
 256              	.LVL16:
 134:main.c        **** 				CONVERTED_DATA[SERIAL_POS][TX_Bit_Counter] = 0x30;   
 257              		.loc 1 134 0
 258 008c 104A     		ldr	r2, .L21+4
 259 008e 9169     		ldr	r1, [r2, #24]
 260 0090 D269     		ldr	r2, [r2, #28]
 261 0092 134B     		ldr	r3, .L21+20
 262 0094 03EB0113 		add	r3, r3, r1, lsl #4
ARM GAS  C:\Users\marlowea\AppData\Local\Temp\cc3kbnrh.s 			page 8


 263 0098 3021     		movs	r1, #48
 264 009a 9954     		strb	r1, [r3, r2]
 265              	.L19:
 135:main.c        **** 			}
 136:main.c        **** 				++count;
 266              		.loc 1 136 0
 267 009c 0C4A     		ldr	r2, .L21+4
 268 009e 136A     		ldr	r3, [r2, #32]
 269 00a0 0133     		adds	r3, r3, #1
 270 00a2 1362     		str	r3, [r2, #32]
 271              	.L16:
 137:main.c        **** 		}
 138:main.c        ****         CyDelayUs(495);
 272              		.loc 1 138 0
 273 00a4 40F2EF10 		movw	r0, #495
 274 00a8 FFF7FEFF 		bl	CyDelayUs
 275              	.LVL17:
 139:main.c        ****         ++TX_Bit_Counter;
 276              		.loc 1 139 0
 277 00ac 084A     		ldr	r2, .L21+4
 278 00ae D369     		ldr	r3, [r2, #28]
 279 00b0 0133     		adds	r3, r3, #1
 280 00b2 D361     		str	r3, [r2, #28]
 140:main.c        ****         if(TX_Bit_Counter >= 16){
 281              		.loc 1 140 0
 282 00b4 0F2B     		cmp	r3, #15
 283 00b6 08DD     		ble	.L13
 141:main.c        **** 		    ++SERIAL_POS;
 284              		.loc 1 141 0
 285 00b8 1346     		mov	r3, r2
 286 00ba 9269     		ldr	r2, [r2, #24]
 287 00bc 0132     		adds	r2, r2, #1
 288 00be 9A61     		str	r2, [r3, #24]
 142:main.c        **** 		    count = 0;
 289              		.loc 1 142 0
 290 00c0 0020     		movs	r0, #0
 291 00c2 1862     		str	r0, [r3, #32]
 143:main.c        **** 		    TX_Bit_Counter = 0;
 292              		.loc 1 143 0
 293 00c4 D861     		str	r0, [r3, #28]
 144:main.c        ****             TX_Write(0);
 294              		.loc 1 144 0
 295 00c6 FFF7FEFF 		bl	TX_Write
 296              	.LVL18:
 297              	.L13:
 298 00ca 08BD     		pop	{r3, pc}
 299              	.L22:
 300              		.align	2
 301              	.L21:
 302 00cc 65650040 		.word	1073767781
 303 00d0 00000000 		.word	.LANCHOR0
 304 00d4 00000000 		.word	SERIAL_BUFFER
 305 00d8 00000000 		.word	currentChar
 306 00dc 00000000 		.word	dataSize
 307 00e0 00000000 		.word	CONVERTED_DATA
 308              		.cfi_endproc
 309              	.LFE64:
ARM GAS  C:\Users\marlowea\AppData\Local\Temp\cc3kbnrh.s 			page 9


 310              		.size	Timer_TX_ISR_HANDLER, .-Timer_TX_ISR_HANDLER
 311              		.section	.text.BACKOFF,"ax",%progbits
 312              		.align	2
 313              		.global	BACKOFF
 314              		.thumb
 315              		.thumb_func
 316              		.type	BACKOFF, %function
 317              	BACKOFF:
 318              	.LFB65:
 145:main.c        ****         }
 146:main.c        ****  
 147:main.c        ****     }else if(systemState == collisionState){
 148:main.c        ****     
 149:main.c        ****        
 150:main.c        ****     
 151:main.c        ****     }
 152:main.c        **** 	
 153:main.c        **** 
 154:main.c        **** }
 155:main.c        **** 
 156:main.c        **** CY_ISR(BACKOFF){
 319              		.loc 1 156 0
 320              		.cfi_startproc
 321              		@ args = 0, pretend = 0, frame = 0
 322              		@ frame_needed = 0, uses_anonymous_args = 0
 323 0000 08B5     		push	{r3, lr}
 324              		.cfi_def_cfa_offset 8
 325              		.cfi_offset 3, -8
 326              		.cfi_offset 14, -4
 157:main.c        ****     BACKOFF_STATUS;
 327              		.loc 1 157 0
 328 0002 044B     		ldr	r3, .L25
 329 0004 1B78     		ldrb	r3, [r3]	@ zero_extendqisi2
 158:main.c        ****     BACKOFF_Stop();
 330              		.loc 1 158 0
 331 0006 FFF7FEFF 		bl	BACKOFF_Stop
 332              	.LVL19:
 159:main.c        ****     systemState = idleState;
 333              		.loc 1 159 0
 334 000a 0022     		movs	r2, #0
 335 000c 024B     		ldr	r3, .L25+4
 336 000e 1A70     		strb	r2, [r3]
 337 0010 08BD     		pop	{r3, pc}
 338              	.L26:
 339 0012 00BF     		.align	2
 340              	.L25:
 341 0014 6F640040 		.word	1073767535
 342 0018 00000000 		.word	.LANCHOR0
 343              		.cfi_endproc
 344              	.LFE65:
 345              		.size	BACKOFF, .-BACKOFF
 346              		.global	__aeabi_i2d
 347              		.global	__aeabi_dmul
 348              		.global	__aeabi_d2uiz
 349              		.global	__aeabi_dsub
 350              		.section	.text.TIMER,"ax",%progbits
 351              		.align	2
ARM GAS  C:\Users\marlowea\AppData\Local\Temp\cc3kbnrh.s 			page 10


 352              		.global	TIMER
 353              		.thumb
 354              		.thumb_func
 355              		.type	TIMER, %function
 356              	TIMER:
 357              	.LFB66:
 160:main.c        **** }
 161:main.c        **** 
 162:main.c        **** CY_ISR(TIMER)
 163:main.c        **** {
 358              		.loc 1 163 0
 359              		.cfi_startproc
 360              		@ args = 0, pretend = 0, frame = 0
 361              		@ frame_needed = 0, uses_anonymous_args = 0
 362 0000 38B5     		push	{r3, r4, r5, lr}
 363              		.cfi_def_cfa_offset 16
 364              		.cfi_offset 3, -16
 365              		.cfi_offset 4, -12
 366              		.cfi_offset 5, -8
 367              		.cfi_offset 14, -4
 164:main.c        ****    	Timer_1_STATUS; //clear timer
 368              		.loc 1 164 0
 369 0002 1B4B     		ldr	r3, .L31
 370 0004 1B78     		ldrb	r3, [r3]	@ zero_extendqisi2
 165:main.c        ****     
 166:main.c        ****     if (!(lowFlag) ){
 371              		.loc 1 166 0
 372 0006 1B4B     		ldr	r3, .L31+4
 373 0008 93F82430 		ldrb	r3, [r3, #36]	@ zero_extendqisi2
 374 000c 1BB9     		cbnz	r3, .L28
 167:main.c        ****         systemState = idleState;
 375              		.loc 1 167 0
 376 000e 0022     		movs	r2, #0
 377 0010 184B     		ldr	r3, .L31+4
 378 0012 1A70     		strb	r2, [r3]
 379 0014 38BD     		pop	{r3, r4, r5, pc}
 380              	.L28:
 381              	.LBB4:
 168:main.c        ****     } else {
 169:main.c        ****         systemState = collisionState;
 382              		.loc 1 169 0
 383 0016 174C     		ldr	r4, .L31+4
 384 0018 0123     		movs	r3, #1
 385 001a 2370     		strb	r3, [r4]
 170:main.c        ****         TX_Write(0);
 386              		.loc 1 170 0
 387 001c 0020     		movs	r0, #0
 388 001e FFF7FEFF 		bl	TX_Write
 389              	.LVL20:
 171:main.c        ****         TX_Bit_Counter = 0;    
 390              		.loc 1 171 0
 391 0022 0023     		movs	r3, #0
 392 0024 E361     		str	r3, [r4, #28]
 172:main.c        ****         count = 0;
 393              		.loc 1 172 0
 394 0026 2362     		str	r3, [r4, #32]
 395              	.LVL21:
ARM GAS  C:\Users\marlowea\AppData\Local\Temp\cc3kbnrh.s 			page 11


 173:main.c        ****         int backoff = 0;
 174:main.c        **** 	    //reset current byte transmission 
 175:main.c        **** 	    //generate sudo-random backoff, normally distributed between backoff/128 seconds, where N is a
 176:main.c        **** 	    backoff = (PRS_Read()+1);
 396              		.loc 1 176 0
 397 0028 FFF7FEFF 		bl	PRS_Read
 398              	.LVL22:
 177:main.c        **** 	    //CyDelay((double)(backoff/128.0)*1000); //use cydelay for now, which takes millis
 178:main.c        ****         BACKOFF_WritePeriod((backoff/128.0)*1000);
 399              		.loc 1 178 0
 400 002c 0130     		adds	r0, r0, #1
 401              	.LVL23:
 402 002e FFF7FEFF 		bl	__aeabi_i2d
 403              	.LVL24:
 404 0032 0022     		movs	r2, #0
 405 0034 4FF07E53 		mov	r3, #1065353216
 406 0038 FFF7FEFF 		bl	__aeabi_dmul
 407              	.LVL25:
 408 003c 0022     		movs	r2, #0
 409 003e 0E4B     		ldr	r3, .L31+8
 410 0040 FFF7FEFF 		bl	__aeabi_dmul
 411              	.LVL26:
 412 0044 0446     		mov	r4, r0
 413 0046 0D46     		mov	r5, r1
 414 0048 FFF7FEFF 		bl	__aeabi_d2uiz
 415              	.LVL27:
 416 004c 80B2     		uxth	r0, r0
 417 004e FFF7FEFF 		bl	BACKOFF_WritePeriod
 418              	.LVL28:
 179:main.c        ****         BACKOFF_WriteCounter(((backoff/128.0)*1000)-1);
 419              		.loc 1 179 0
 420 0052 0022     		movs	r2, #0
 421 0054 094B     		ldr	r3, .L31+12
 422 0056 2046     		mov	r0, r4
 423 0058 2946     		mov	r1, r5
 424 005a FFF7FEFF 		bl	__aeabi_dsub
 425              	.LVL29:
 426 005e FFF7FEFF 		bl	__aeabi_d2uiz
 427              	.LVL30:
 428 0062 80B2     		uxth	r0, r0
 429 0064 FFF7FEFF 		bl	BACKOFF_WriteCounter
 430              	.LVL31:
 180:main.c        ****         BACKOFF_Start();
 431              		.loc 1 180 0
 432 0068 FFF7FEFF 		bl	BACKOFF_Start
 433              	.LVL32:
 434 006c 38BD     		pop	{r3, r4, r5, pc}
 435              	.L32:
 436 006e 00BF     		.align	2
 437              	.L31:
 438 0070 67640040 		.word	1073767527
 439 0074 00000000 		.word	.LANCHOR0
 440 0078 00408F40 		.word	1083129856
 441 007c 0000F03F 		.word	1072693248
 442              	.LBE4:
 443              		.cfi_endproc
 444              	.LFE66:
ARM GAS  C:\Users\marlowea\AppData\Local\Temp\cc3kbnrh.s 			page 12


 445              		.size	TIMER, .-TIMER
 446              		.section	.text.RISING,"ax",%progbits
 447              		.align	2
 448              		.global	RISING
 449              		.thumb
 450              		.thumb_func
 451              		.type	RISING, %function
 452              	RISING:
 453              	.LFB67:
 181:main.c        ****     }
 182:main.c        **** }
 183:main.c        **** 
 184:main.c        **** CY_ISR(RISING)
 185:main.c        **** {
 454              		.loc 1 185 0
 455              		.cfi_startproc
 456              		@ args = 0, pretend = 0, frame = 0
 457              		@ frame_needed = 0, uses_anonymous_args = 0
 458 0000 08B5     		push	{r3, lr}
 459              		.cfi_def_cfa_offset 8
 460              		.cfi_offset 3, -8
 461              		.cfi_offset 14, -4
 186:main.c        ****     if ((!lowFlag)){
 462              		.loc 1 186 0
 463 0002 0E4B     		ldr	r3, .L37
 464 0004 93F82430 		ldrb	r3, [r3, #36]	@ zero_extendqisi2
 465 0008 6BB9     		cbnz	r3, .L34
 187:main.c        ****         Timer_1_WritePeriod(COLL_PERIOD);
 466              		.loc 1 187 0
 467 000a 3420     		movs	r0, #52
 468 000c FFF7FEFF 		bl	Timer_1_WritePeriod
 469              	.LVL33:
 188:main.c        ****         Timer_1_WriteCounter(COLL_COUNTER);
 470              		.loc 1 188 0
 471 0010 3320     		movs	r0, #51
 472 0012 FFF7FEFF 		bl	Timer_1_WriteCounter
 473              	.LVL34:
 189:main.c        ****         Timer_1_Start();
 474              		.loc 1 189 0
 475 0016 FFF7FEFF 		bl	Timer_1_Start
 476              	.LVL35:
 190:main.c        ****         lowFlag = 1;
 477              		.loc 1 190 0
 478 001a 084B     		ldr	r3, .L37
 479 001c 0122     		movs	r2, #1
 480 001e 83F82420 		strb	r2, [r3, #36]
 191:main.c        ****         systemState = busyState;
 481              		.loc 1 191 0
 482 0022 0222     		movs	r2, #2
 483 0024 1A70     		strb	r2, [r3]
 484              	.L34:
 192:main.c        ****     }
 193:main.c        ****     if(RX_Lock == 0){
 485              		.loc 1 193 0
 486 0026 054B     		ldr	r3, .L37
 487 0028 1B69     		ldr	r3, [r3, #16]
 488 002a 33B9     		cbnz	r3, .L33
ARM GAS  C:\Users\marlowea\AppData\Local\Temp\cc3kbnrh.s 			page 13


 194:main.c        ****         TIMER_RX_Start();
 489              		.loc 1 194 0
 490 002c FFF7FEFF 		bl	TIMER_RX_Start
 491              	.LVL36:
 195:main.c        ****         RX_Lock = 1;
 492              		.loc 1 195 0
 493 0030 0120     		movs	r0, #1
 494 0032 024B     		ldr	r3, .L37
 495 0034 1861     		str	r0, [r3, #16]
 196:main.c        ****         TP_RX_SMPL_Write(1); //needed for test point sampling
 496              		.loc 1 196 0
 497 0036 FFF7FEFF 		bl	TP_RX_SMPL_Write
 498              	.LVL37:
 499              	.L33:
 500 003a 08BD     		pop	{r3, pc}
 501              	.L38:
 502              		.align	2
 503              	.L37:
 504 003c 00000000 		.word	.LANCHOR0
 505              		.cfi_endproc
 506              	.LFE67:
 507              		.size	RISING, .-RISING
 508              		.section	.text.FALLING,"ax",%progbits
 509              		.align	2
 510              		.global	FALLING
 511              		.thumb
 512              		.thumb_func
 513              		.type	FALLING, %function
 514              	FALLING:
 515              	.LFB68:
 197:main.c        ****     }
 198:main.c        **** }
 199:main.c        ****  
 200:main.c        **** CY_ISR(FALLING)
 201:main.c        **** {
 516              		.loc 1 201 0
 517              		.cfi_startproc
 518              		@ args = 0, pretend = 0, frame = 0
 519              		@ frame_needed = 0, uses_anonymous_args = 0
 520 0000 08B5     		push	{r3, lr}
 521              		.cfi_def_cfa_offset 8
 522              		.cfi_offset 3, -8
 523              		.cfi_offset 14, -4
 202:main.c        ****     if (lowFlag){
 524              		.loc 1 202 0
 525 0002 0A4B     		ldr	r3, .L42
 526 0004 93F82430 		ldrb	r3, [r3, #36]	@ zero_extendqisi2
 527 0008 7BB1     		cbz	r3, .L39
 203:main.c        ****         Timer_1_WritePeriod(IDLE_PERIOD);
 528              		.loc 1 203 0
 529 000a 40F23E30 		movw	r0, #830
 530 000e FFF7FEFF 		bl	Timer_1_WritePeriod
 531              	.LVL38:
 204:main.c        ****         Timer_1_WriteCounter(IDLE_COUNTER);
 532              		.loc 1 204 0
 533 0012 40F23D30 		movw	r0, #829
 534 0016 FFF7FEFF 		bl	Timer_1_WriteCounter
ARM GAS  C:\Users\marlowea\AppData\Local\Temp\cc3kbnrh.s 			page 14


 535              	.LVL39:
 205:main.c        ****         Timer_1_Start();
 536              		.loc 1 205 0
 537 001a FFF7FEFF 		bl	Timer_1_Start
 538              	.LVL40:
 206:main.c        ****         lowFlag = 0;
 539              		.loc 1 206 0
 540 001e 034B     		ldr	r3, .L42
 541 0020 0022     		movs	r2, #0
 542 0022 83F82420 		strb	r2, [r3, #36]
 207:main.c        ****         systemState = busyState;
 543              		.loc 1 207 0
 544 0026 0222     		movs	r2, #2
 545 0028 1A70     		strb	r2, [r3]
 546              	.L39:
 547 002a 08BD     		pop	{r3, pc}
 548              	.L43:
 549              		.align	2
 550              	.L42:
 551 002c 00000000 		.word	.LANCHOR0
 552              		.cfi_endproc
 553              	.LFE68:
 554              		.size	FALLING, .-FALLING
 555              		.section	.text.main,"ax",%progbits
 556              		.align	2
 557              		.global	main
 558              		.thumb
 559              		.thumb_func
 560              		.type	main, %function
 561              	main:
 562              	.LFB69:
 208:main.c        ****     }
 209:main.c        **** }
 210:main.c        **** 
 211:main.c        **** int main(void)
 212:main.c        **** {
 563              		.loc 1 212 0
 564              		.cfi_startproc
 565              		@ args = 0, pretend = 0, frame = 0
 566              		@ frame_needed = 0, uses_anonymous_args = 0
 567 0000 38B5     		push	{r3, r4, r5, lr}
 568              		.cfi_def_cfa_offset 16
 569              		.cfi_offset 3, -16
 570              		.cfi_offset 4, -12
 571              		.cfi_offset 5, -8
 572              		.cfi_offset 14, -4
 573              	.LVL41:
 213:main.c        ****     int printPrompt = 0;
 214:main.c        ****     CyGlobalIntEnable;
 574              		.loc 1 214 0
 575              		.syntax unified
 576              	@ 214 "main.c" 1
 577 0002 62B6     		CPSIE   i
 578              	@ 0 "" 2
 215:main.c        ****     TimerISR_StartEx(TIMER);
 579              		.loc 1 215 0
 580              		.thumb
ARM GAS  C:\Users\marlowea\AppData\Local\Temp\cc3kbnrh.s 			page 15


 581              		.syntax unified
 582 0004 8F48     		ldr	r0, .L73
 583 0006 FFF7FEFF 		bl	TimerISR_StartEx
 584              	.LVL42:
 216:main.c        ****     INT_RISING_StartEx(RISING);
 585              		.loc 1 216 0
 586 000a 8F48     		ldr	r0, .L73+4
 587 000c FFF7FEFF 		bl	INT_RISING_StartEx
 588              	.LVL43:
 217:main.c        ****     INT_FALLING_StartEx(FALLING);
 589              		.loc 1 217 0
 590 0010 8E48     		ldr	r0, .L73+8
 591 0012 FFF7FEFF 		bl	INT_FALLING_StartEx
 592              	.LVL44:
 218:main.c        ****     
 219:main.c        ****     Timer_TX_Start();
 593              		.loc 1 219 0
 594 0016 FFF7FEFF 		bl	Timer_TX_Start
 595              	.LVL45:
 220:main.c        ****     Timer_TX_WritePeriod(TX_PERIOD);
 596              		.loc 1 220 0
 597 001a 2F20     		movs	r0, #47
 598 001c FFF7FEFF 		bl	Timer_TX_WritePeriod
 599              	.LVL46:
 221:main.c        ****     Timer_TX_WriteCounter(TX_COUNTER);
 600              		.loc 1 221 0
 601 0020 2E20     		movs	r0, #46
 602 0022 FFF7FEFF 		bl	Timer_TX_WriteCounter
 603              	.LVL47:
 222:main.c        ****     Timer_TX_ISR_StartEx(Timer_TX_ISR_HANDLER);
 604              		.loc 1 222 0
 605 0026 8A48     		ldr	r0, .L73+12
 606 0028 FFF7FEFF 		bl	Timer_TX_ISR_StartEx
 607              	.LVL48:
 223:main.c        ****     
 224:main.c        ****     TIMER_RX_WriteCounter(RX_COUNTER);
 608              		.loc 1 224 0
 609 002c 3320     		movs	r0, #51
 610 002e FFF7FEFF 		bl	TIMER_RX_WriteCounter
 611              	.LVL49:
 225:main.c        ****     TIMER_RX_WritePeriod(RX_PERIOD);
 612              		.loc 1 225 0
 613 0032 3420     		movs	r0, #52
 614 0034 FFF7FEFF 		bl	TIMER_RX_WritePeriod
 615              	.LVL50:
 226:main.c        ****     TIMER_RX_ISR_StartEx(TIMER_RX_ISR);
 616              		.loc 1 226 0
 617 0038 8648     		ldr	r0, .L73+16
 618 003a FFF7FEFF 		bl	TIMER_RX_ISR_StartEx
 619              	.LVL51:
 227:main.c        ****     
 228:main.c        ****     BACKOFF_ISR_StartEx(BACKOFF);
 620              		.loc 1 228 0
 621 003e 8648     		ldr	r0, .L73+20
 622 0040 FFF7FEFF 		bl	BACKOFF_ISR_StartEx
 623              	.LVL52:
 229:main.c        ****     PRS_Start();
ARM GAS  C:\Users\marlowea\AppData\Local\Temp\cc3kbnrh.s 			page 16


 624              		.loc 1 229 0
 625 0044 FFF7FEFF 		bl	PRS_Start
 626              	.LVL53:
 230:main.c        ****     UART_Start(UART_device,UART_5V_OPERATION);
 627              		.loc 1 230 0
 628 0048 844B     		ldr	r3, .L73+24
 629 004a 1878     		ldrb	r0, [r3]	@ zero_extendqisi2
 630 004c 0121     		movs	r1, #1
 631 004e FFF7FEFF 		bl	UART_Start
 632              	.LVL54:
 633              	.L46:
 231:main.c        **** 
 232:main.c        ****     while(1){
 233:main.c        ****          //check if UART is connected, then set flag
 234:main.c        **** 		if(UART_GetDTERate() == 57600){
 634              		.loc 1 234 0
 635 0052 FFF7FEFF 		bl	UART_GetDTERate
 636              	.LVL55:
 637 0056 B0F5614F 		cmp	r0, #57600
 638 005a 02D1     		bne	.L47
 235:main.c        **** 			uartConnected = 1;
 639              		.loc 1 235 0
 640 005c 0122     		movs	r2, #1
 641 005e 804B     		ldr	r3, .L73+28
 642 0060 9A62     		str	r2, [r3, #40]
 643              	.L47:
 236:main.c        **** 		}
 237:main.c        **** 	
 238:main.c        **** 		//Host can send double SET_INTERFACE request, which sounds sub-optimal for us if we don't handle 
 239:main.c        **** 		if (0 != UART_IsConfigurationChanged())
 644              		.loc 1 239 0
 645 0062 FFF7FEFF 		bl	UART_IsConfigurationChanged
 646              	.LVL56:
 647 0066 20B1     		cbz	r0, .L48
 240:main.c        **** 		{
 241:main.c        **** 			//re-initialize device
 242:main.c        **** 			if (0 != UART_GetConfiguration())
 648              		.loc 1 242 0
 649 0068 FFF7FEFF 		bl	UART_GetConfiguration
 650              	.LVL57:
 651 006c 08B1     		cbz	r0, .L48
 243:main.c        **** 			{
 244:main.c        **** 				//Enumeration is done, allow receieving data from host
 245:main.c        **** 				UART_CDC_Init();
 652              		.loc 1 245 0
 653 006e FFF7FEFF 		bl	UART_CDC_Init
 654              	.LVL58:
 655              	.L48:
 246:main.c        **** 			}
 247:main.c        **** 		}
 248:main.c        ****         
 249:main.c        ****         //get address
 250:main.c        ****         if(printPrompt == 0 && uartConnected){
 656              		.loc 1 250 0
 657 0072 7B4B     		ldr	r3, .L73+28
 658 0074 9B6A     		ldr	r3, [r3, #40]
 659 0076 002B     		cmp	r3, #0
ARM GAS  C:\Users\marlowea\AppData\Local\Temp\cc3kbnrh.s 			page 17


 660 0078 00F08680 		beq	.L49
 661              	.LVL59:
 662              	.LBB5:
 251:main.c        ****             int count = 0;
 252:main.c        ****             TX_Addr = 0;
 663              		.loc 1 252 0
 664 007c 0022     		movs	r2, #0
 665 007e 784B     		ldr	r3, .L73+28
 666 0080 83F82C20 		strb	r2, [r3, #44]
 667              	.LVL60:
 668              	.L50:
 253:main.c        ****             printPrompt = 1;
 254:main.c        ****             char input = 0;
 255:main.c        ****             while(!UART_CDCIsReady());
 669              		.loc 1 255 0 discriminator 1
 670 0084 FFF7FEFF 		bl	UART_CDCIsReady
 671              	.LVL61:
 672 0088 0028     		cmp	r0, #0
 673 008a FBD0     		beq	.L50
 256:main.c        ****             UART_PutString("Enter Address (3 digits): ");
 674              		.loc 1 256 0
 675 008c 7548     		ldr	r0, .L73+32
 676 008e FFF7FEFF 		bl	UART_PutString
 677              	.LVL62:
 251:main.c        ****             int count = 0;
 678              		.loc 1 251 0
 679 0092 0024     		movs	r4, #0
 257:main.c        ****             while(count < 3){
 680              		.loc 1 257 0
 681 0094 32E0     		b	.L51
 682              	.LVL63:
 683              	.L52:
 258:main.c        ****                 while(UART_DataIsReady() == 0); //wait for digits
 684              		.loc 1 258 0 discriminator 1
 685 0096 FFF7FEFF 		bl	UART_DataIsReady
 686              	.LVL64:
 687 009a 0028     		cmp	r0, #0
 688 009c FBD0     		beq	.L52
 259:main.c        ****                 //why minus 0x30? because these are ASCII chars from the keyboard...
 260:main.c        ****                 input = UART_GetChar();
 689              		.loc 1 260 0
 690 009e FFF7FEFF 		bl	UART_GetChar
 691              	.LVL65:
 261:main.c        ****                 if(count == 0){
 692              		.loc 1 261 0
 693 00a2 7CB9     		cbnz	r4, .L53
 262:main.c        ****                     TX_Addr  += 100*(input - (0x30));
 694              		.loc 1 262 0
 695 00a4 A0F13003 		sub	r3, r0, #48
 696 00a8 6D4A     		ldr	r2, .L73+28
 697 00aa 03EB8303 		add	r3, r3, r3, lsl #2
 698 00ae 03EB8303 		add	r3, r3, r3, lsl #2
 699 00b2 9900     		lsls	r1, r3, #2
 700 00b4 92F82C30 		ldrb	r3, [r2, #44]	@ zero_extendqisi2
 701 00b8 0B44     		add	r3, r3, r1
 702 00ba 82F82C30 		strb	r3, [r2, #44]
 263:main.c        ****                     UART_PutChar(input);
ARM GAS  C:\Users\marlowea\AppData\Local\Temp\cc3kbnrh.s 			page 18


 703              		.loc 1 263 0
 704 00be FFF7FEFF 		bl	UART_PutChar
 705              	.LVL66:
 706 00c2 1AE0     		b	.L54
 707              	.LVL67:
 708              	.L53:
 264:main.c        ****                 }else if(count == 1){
 709              		.loc 1 264 0
 710 00c4 012C     		cmp	r4, #1
 711 00c6 0DD1     		bne	.L55
 265:main.c        ****                     TX_Addr  += 10*(input - (0x30));
 712              		.loc 1 265 0
 713 00c8 A0F13003 		sub	r3, r0, #48
 714 00cc 644A     		ldr	r2, .L73+28
 715 00ce 03EB8303 		add	r3, r3, r3, lsl #2
 716 00d2 5900     		lsls	r1, r3, #1
 717 00d4 92F82C30 		ldrb	r3, [r2, #44]	@ zero_extendqisi2
 718 00d8 0B44     		add	r3, r3, r1
 719 00da 82F82C30 		strb	r3, [r2, #44]
 266:main.c        ****                     UART_PutChar(input);
 720              		.loc 1 266 0
 721 00de FFF7FEFF 		bl	UART_PutChar
 722              	.LVL68:
 723 00e2 0AE0     		b	.L54
 724              	.LVL69:
 725              	.L55:
 267:main.c        ****                 }else if (count == 2){
 726              		.loc 1 267 0
 727 00e4 022C     		cmp	r4, #2
 728 00e6 08D1     		bne	.L54
 268:main.c        ****                     TX_Addr  += input - (0x30);   
 729              		.loc 1 268 0
 730 00e8 5D4A     		ldr	r2, .L73+28
 731 00ea 92F82C30 		ldrb	r3, [r2, #44]	@ zero_extendqisi2
 732 00ee 0344     		add	r3, r3, r0
 733 00f0 303B     		subs	r3, r3, #48
 734 00f2 82F82C30 		strb	r3, [r2, #44]
 269:main.c        ****                     UART_PutChar(input);
 735              		.loc 1 269 0
 736 00f6 FFF7FEFF 		bl	UART_PutChar
 737              	.LVL70:
 738              	.L54:
 270:main.c        ****                 }
 271:main.c        ****                 ++count;
 739              		.loc 1 271 0
 740 00fa 0134     		adds	r4, r4, #1
 741              	.LVL71:
 742              	.L51:
 257:main.c        ****                 while(UART_DataIsReady() == 0); //wait for digits
 743              		.loc 1 257 0
 744 00fc 022C     		cmp	r4, #2
 745 00fe CADD     		ble	.L52
 746              	.L56:
 272:main.c        ****             } 
 273:main.c        ****             //Display print newline and prompt for message
 274:main.c        ****             while(!UART_CDCIsReady());
 747              		.loc 1 274 0 discriminator 1
ARM GAS  C:\Users\marlowea\AppData\Local\Temp\cc3kbnrh.s 			page 19


 748 0100 FFF7FEFF 		bl	UART_CDCIsReady
 749              	.LVL72:
 750 0104 0028     		cmp	r0, #0
 751 0106 FBD0     		beq	.L56
 275:main.c        ****             UART_PutCRLF();
 752              		.loc 1 275 0
 753 0108 FFF7FEFF 		bl	UART_PutCRLF
 754              	.LVL73:
 755              	.L57:
 276:main.c        ****             while(!UART_CDCIsReady());
 756              		.loc 1 276 0 discriminator 1
 757 010c FFF7FEFF 		bl	UART_CDCIsReady
 758              	.LVL74:
 759 0110 0028     		cmp	r0, #0
 760 0112 FBD0     		beq	.L57
 277:main.c        ****             UART_PutString("Enter message: ");
 761              		.loc 1 277 0
 762 0114 5448     		ldr	r0, .L73+36
 763 0116 FFF7FEFF 		bl	UART_PutString
 764              	.LVL75:
 278:main.c        ****             count = 6; //reset counter, accounting for header
 279:main.c        ****             input = 0; //reset input
 280:main.c        ****             //encode header
 281:main.c        ****             
 282:main.c        ****             SERIAL_BUFFER[0] = 0x00; //does not take into account starting bit
 765              		.loc 1 282 0
 766 011a 544B     		ldr	r3, .L73+40
 767 011c 0024     		movs	r4, #0
 768 011e 1C70     		strb	r4, [r3]
 283:main.c        ****             SERIAL_BUFFER[1] = PROTOCOL_VERSION;
 769              		.loc 1 283 0
 770 0120 0122     		movs	r2, #1
 771 0122 5A70     		strb	r2, [r3, #1]
 284:main.c        ****             SERIAL_BUFFER[2] = ADDR1_Start;
 772              		.loc 1 284 0
 773 0124 1022     		movs	r2, #16
 774 0126 9A70     		strb	r2, [r3, #2]
 285:main.c        ****             SERIAL_BUFFER[3] = TX_Addr;
 775              		.loc 1 285 0
 776 0128 4D4A     		ldr	r2, .L73+28
 777 012a 92F82C20 		ldrb	r2, [r2, #44]	@ zero_extendqisi2
 778 012e DA70     		strb	r2, [r3, #3]
 286:main.c        ****             SERIAL_BUFFER[4] = 0x00; //padding for now, will be replaced with actual length after u
 779              		.loc 1 286 0
 780 0130 1C71     		strb	r4, [r3, #4]
 287:main.c        ****             SERIAL_BUFFER[5] = CRC_USE;
 781              		.loc 1 287 0
 782 0132 8022     		movs	r2, #128
 783 0134 5A71     		strb	r2, [r3, #5]
 288:main.c        ****             SERIAL_BUFFER[6] = HEADER_CRC;
 784              		.loc 1 288 0
 785 0136 7722     		movs	r2, #119
 786 0138 9A71     		strb	r2, [r3, #6]
 278:main.c        ****             input = 0; //reset input
 787              		.loc 1 278 0
 788 013a 0625     		movs	r5, #6
 289:main.c        ****             
ARM GAS  C:\Users\marlowea\AppData\Local\Temp\cc3kbnrh.s 			page 20


 290:main.c        ****             //OD is the 'enter' key
 291:main.c        ****             while(input != 0x0D){
 789              		.loc 1 291 0
 790 013c 13E0     		b	.L58
 791              	.LVL76:
 792              	.L59:
 292:main.c        ****                 while(UART_DataIsReady() == 0); //wait for message data
 793              		.loc 1 292 0 discriminator 1
 794 013e FFF7FEFF 		bl	UART_DataIsReady
 795              	.LVL77:
 796 0142 0028     		cmp	r0, #0
 797 0144 FBD0     		beq	.L59
 293:main.c        ****                 input = UART_GetChar();
 798              		.loc 1 293 0
 799 0146 FFF7FEFF 		bl	UART_GetChar
 800              	.LVL78:
 801 014a 0446     		mov	r4, r0
 802              	.LVL79:
 294:main.c        ****                 if(input != 0x0D){
 803              		.loc 1 294 0
 804 014c 0D28     		cmp	r0, #13
 805 014e 0AD0     		beq	.L58
 295:main.c        ****                     SERIAL_BUFFER[count] = input;
 806              		.loc 1 295 0
 807 0150 464B     		ldr	r3, .L73+40
 808 0152 5855     		strb	r0, [r3, r5]
 809              	.LVL80:
 810              	.L61:
 296:main.c        ****                     while(!UART_CDCIsReady());
 811              		.loc 1 296 0 discriminator 1
 812 0154 FFF7FEFF 		bl	UART_CDCIsReady
 813              	.LVL81:
 814 0158 0028     		cmp	r0, #0
 815 015a FBD0     		beq	.L61
 297:main.c        ****                     UART_PutChar(SERIAL_BUFFER[count]);
 816              		.loc 1 297 0
 817 015c 434B     		ldr	r3, .L73+40
 818 015e 585D     		ldrb	r0, [r3, r5]	@ zero_extendqisi2
 819 0160 FFF7FEFF 		bl	UART_PutChar
 820              	.LVL82:
 298:main.c        ****                     ++count;
 821              		.loc 1 298 0
 822 0164 0135     		adds	r5, r5, #1
 823              	.LVL83:
 824              	.L58:
 291:main.c        ****                 while(UART_DataIsReady() == 0); //wait for message data
 825              		.loc 1 291 0
 826 0166 0D2C     		cmp	r4, #13
 827 0168 E9D1     		bne	.L59
 299:main.c        ****                 }
 300:main.c        ****             }
 301:main.c        ****             SERIAL_BUFFER[4] = count; //replace padding with actual message length
 828              		.loc 1 301 0
 829 016a EDB2     		uxtb	r5, r5
 830              	.LVL84:
 831 016c 3F4B     		ldr	r3, .L73+40
 832 016e 1D71     		strb	r5, [r3, #4]
ARM GAS  C:\Users\marlowea\AppData\Local\Temp\cc3kbnrh.s 			page 21


 302:main.c        ****         //send data by setting variable
 303:main.c        ****         dataSize = SERIAL_BUFFER[4]+7;
 833              		.loc 1 303 0
 834 0170 0735     		adds	r5, r5, #7
 835 0172 3F4B     		ldr	r3, .L73+44
 836 0174 1D60     		str	r5, [r3]
 304:main.c        ****         SERIAL_POS = 0;
 837              		.loc 1 304 0
 838 0176 0022     		movs	r2, #0
 839 0178 394B     		ldr	r3, .L73+28
 840 017a 9A61     		str	r2, [r3, #24]
 841              	.LVL85:
 842              	.L62:
 305:main.c        ****         printPrompt = 0;
 306:main.c        ****         while(!UART_CDCIsReady());
 843              		.loc 1 306 0 discriminator 1
 844 017c FFF7FEFF 		bl	UART_CDCIsReady
 845              	.LVL86:
 846 0180 0028     		cmp	r0, #0
 847 0182 FBD0     		beq	.L62
 307:main.c        ****         UART_PutCRLF();       
 848              		.loc 1 307 0
 849 0184 FFF7FEFF 		bl	UART_PutCRLF
 850              	.LVL87:
 851              	.L49:
 852              	.LBE5:
 308:main.c        ****         }
 309:main.c        ****         
 310:main.c        ****         
 311:main.c        **** 
 312:main.c        ****         /*
 313:main.c        ****         //check if the UART has data, then place in buffer
 314:main.c        ****         if(UART_DataIsReady() != 0){
 315:main.c        ****             dataSize = UART_GetAll(SERIAL_BUFFER);
 316:main.c        ****             while(!UART_CDCIsReady());
 317:main.c        ****             UART_PutCRLF();
 318:main.c        ****             dataConvertedReadOutCount = 0;            
 319:main.c        ****             SERIAL_POS = 0;
 320:main.c        ****             printPrompt = 0;
 321:main.c        ****         }
 322:main.c        ****         */
 323:main.c        ****         //write converted data to UART
 324:main.c        ****     /*
 325:main.c        ****         if(UART_CDCIsReady() != 0){
 326:main.c        ****             if(dataConvertedReadOutCount < dataSize && SERIAL_POS == dataSize){
 327:main.c        ****                 for(int y = 0; y < 16; y++){
 328:main.c        ****                  while(!UART_CDCIsReady());
 329:main.c        ****                  //UART_PutChar(CONVERTED_DATA[dataConvertedReadOutCount][y]); 
 330:main.c        ****                 UART_PutChar(RX_DATA[y]);
 331:main.c        ****                 }
 332:main.c        ****                 ++dataConvertedReadOutCount;
 333:main.c        ****                 while(!UART_CDCIsReady());
 334:main.c        ****                 UART_PutCRLF();
 335:main.c        ****             }
 336:main.c        ****         }
 337:main.c        ****     */
 338:main.c        ****         
ARM GAS  C:\Users\marlowea\AppData\Local\Temp\cc3kbnrh.s 			page 22


 339:main.c        ****         if(UART_CDCIsReady() != 0){
 853              		.loc 1 339 0
 854 0188 FFF7FEFF 		bl	UART_CDCIsReady
 855              	.LVL88:
 856 018c E0B1     		cbz	r0, .L63
 340:main.c        ****             
 341:main.c        ****             if(UART_RX_DATA_READ_OUT != SERIAL_RX_POS){
 857              		.loc 1 341 0
 858 018e 344B     		ldr	r3, .L73+28
 859 0190 DA68     		ldr	r2, [r3, #12]
 860 0192 9B68     		ldr	r3, [r3, #8]
 861 0194 9A42     		cmp	r2, r3
 862 0196 0ED1     		bne	.L71
 863              	.LBB6:
 864 0198 12E0     		b	.L65
 865              	.LVL89:
 866              	.L66:
 867              	.LBB7:
 342:main.c        ****                 for(int y = 0; y < SERIAL_RX_POS; y++){
 343:main.c        ****                     int startHeaderReceieved = 0;
 344:main.c        ****                     int verNumMatch = 0;
 345:main.c        ****                     char sourceAddr = 0x00;
 346:main.c        ****                     char destAddr = 0x00;
 347:main.c        ****                     int dataLength = 0;
 348:main.c        ****                     char CRCused = 0x00;
 349:main.c        ****                     char HeaderCRC = 0x00;
 350:main.c        ****                     int addrDataPrinted = 0;
 351:main.c        ****                     int dataPrintedOut = 0;
 352:main.c        ****                                         
 353:main.c        ****                     while(!UART_CDCIsReady());
 868              		.loc 1 353 0 discriminator 1
 869 019a FFF7FEFF 		bl	UART_CDCIsReady
 870              	.LVL90:
 871 019e 0028     		cmp	r0, #0
 872 01a0 FBD0     		beq	.L66
 354:main.c        ****                     //check for start bit
 355:main.c        ****                     if(y == 0){
 356:main.c        ****                         if(SERIAL_RX_BUFFER[y] == 0x00){
 357:main.c        ****                             startHeaderReceieved = 1;
 358:main.c        ****                         }
 359:main.c        ****                     }
 360:main.c        ****                     //check for version number
 361:main.c        ****                     else if(y == 1){
 362:main.c        ****                         if(SERIAL_RX_BUFFER[y] == 0x01){
 363:main.c        ****                             verNumMatch = 1;
 364:main.c        ****                         }
 365:main.c        ****                     }
 366:main.c        ****                     //get source address
 367:main.c        ****                     else if(y == 2){
 368:main.c        ****                         sourceAddr = SERIAL_RX_BUFFER[y];
 369:main.c        ****                     }
 370:main.c        ****                     //get destination address
 371:main.c        ****                     else if(y == 3){
 372:main.c        ****                         destAddr = SERIAL_RX_BUFFER[y];
 373:main.c        ****                     //get datalegnth     
 374:main.c        ****                     }else if(y == 4){
 375:main.c        ****                         dataLength = SERIAL_RX_BUFFER[y];
ARM GAS  C:\Users\marlowea\AppData\Local\Temp\cc3kbnrh.s 			page 23


 376:main.c        ****                     //get CRC related data
 377:main.c        ****                     }else if(y == 5){
 378:main.c        ****                         CRCused = SERIAL_RX_BUFFER[y];
 379:main.c        ****                     } else if(y == 6){
 380:main.c        ****                         HeaderCRC = SERIAL_RX_BUFFER[y];   
 381:main.c        ****                     }
 382:main.c        ****                     
 383:main.c        ****                     //check version numbers and start bit
 384:main.c        ****                     else if((startHeaderReceieved)&&(verNumMatch)){
 385:main.c        ****                         //check that the destination address is this terminal 
 386:main.c        ****                         if(destAddr == BROADCAST || 
 387:main.c        ****                             ((destAddr >= ADDR1_Start) && (destAddr <= ADDR1_Start+ADDR_length)) ||
 388:main.c        ****                             ((destAddr >= ADDR2_Start) && (destAddr <= ADDR2_Start+ADDR_length)) ||
 389:main.c        ****                             ((destAddr >= ADDR3_Start) && (destAddr <= ADDR3_Start+ADDR_length))){
 390:main.c        ****                             
 391:main.c        ****                             if(addrDataPrinted == 0){
 392:main.c        ****                                 addrDataPrinted = 1; 
 393:main.c        ****                                 while(!UART_CDCIsReady());
 394:main.c        ****                                 UART_PutString("Source Address: ");
 395:main.c        ****                                 while(!UART_CDCIsReady());
 396:main.c        ****                                 UART_PutChar(sourceAddr);
 397:main.c        ****                                 while(!UART_CDCIsReady());
 398:main.c        ****                                 UART_PutCRLF();
 399:main.c        ****                                 while(!UART_CDCIsReady());
 400:main.c        ****                                 UART_PutString("Destination Address: ");
 401:main.c        ****                                 while(!UART_CDCIsReady());
 402:main.c        ****                                 UART_PutChar(destAddr);
 403:main.c        ****                                 while(!UART_CDCIsReady());
 404:main.c        ****                                 UART_PutCRLF();
 405:main.c        ****                             }
 406:main.c        ****                             //print out data
 407:main.c        ****                             if(dataPrintedOut < dataLength){
 408:main.c        ****                                 while(!UART_CDCIsReady());
 409:main.c        ****                                 UART_PutChar(SERIAL_RX_BUFFER[y]);
 410:main.c        ****                                 ++dataPrintedOut;
 411:main.c        ****                             }else{
 412:main.c        ****                             //we are out of data here
 413:main.c        ****                             while(!UART_CDCIsReady());
 414:main.c        ****                             UART_PutCRLF();
 415:main.c        ****                             }
 416:main.c        ****                                 
 417:main.c        ****                         }
 418:main.c        ****                     }
 419:main.c        ****                     UART_PutChar(SERIAL_RX_BUFFER[y]); //send data to UART
 873              		.loc 1 419 0 discriminator 2
 874 01a2 344B     		ldr	r3, .L73+48
 875 01a4 185D     		ldrb	r0, [r3, r4]	@ zero_extendqisi2
 876 01a6 FFF7FEFF 		bl	UART_PutChar
 877              	.LVL91:
 420:main.c        ****                     ++UART_RX_DATA_READ_OUT;
 878              		.loc 1 420 0 discriminator 2
 879 01aa 2D4A     		ldr	r2, .L73+28
 880 01ac D368     		ldr	r3, [r2, #12]
 881 01ae 0133     		adds	r3, r3, #1
 882 01b0 D360     		str	r3, [r2, #12]
 883              	.LBE7:
 342:main.c        ****                 for(int y = 0; y < SERIAL_RX_POS; y++){
ARM GAS  C:\Users\marlowea\AppData\Local\Temp\cc3kbnrh.s 			page 24


 884              		.loc 1 342 0 discriminator 2
 885 01b2 0134     		adds	r4, r4, #1
 886              	.LVL92:
 887 01b4 00E0     		b	.L64
 888              	.LVL93:
 889              	.L71:
 890              	.LBE6:
 891 01b6 0024     		movs	r4, #0
 892              	.L64:
 893              	.LVL94:
 894              	.LBB8:
 342:main.c        ****                 for(int y = 0; y < SERIAL_RX_POS; y++){
 895              		.loc 1 342 0 is_stmt 0 discriminator 1
 896 01b8 294B     		ldr	r3, .L73+28
 897 01ba 9B68     		ldr	r3, [r3, #8]
 898 01bc 9C42     		cmp	r4, r3
 899 01be ECDB     		blt	.L66
 900              	.LVL95:
 901              	.L65:
 902              	.LBE8:
 421:main.c        ****                     //while(!UART_CDCIsReady());
 422:main.c        ****                     //UART_PutCRLF();
 423:main.c        ****                 }
 424:main.c        ****             }
 425:main.c        ****                 SERIAL_RX_POS = 0;
 903              		.loc 1 425 0 is_stmt 1
 904 01c0 274B     		ldr	r3, .L73+28
 905 01c2 0022     		movs	r2, #0
 906 01c4 9A60     		str	r2, [r3, #8]
 426:main.c        ****                 UART_RX_DATA_READ_OUT = 0;
 907              		.loc 1 426 0
 908 01c6 DA60     		str	r2, [r3, #12]
 909              	.L63:
 427:main.c        ****                         
 428:main.c        ****         }
 429:main.c        ****         
 430:main.c        **** 
 431:main.c        ****         switch(systemState){
 910              		.loc 1 431 0
 911 01c8 254B     		ldr	r3, .L73+28
 912 01ca 1B78     		ldrb	r3, [r3]	@ zero_extendqisi2
 913 01cc 012B     		cmp	r3, #1
 914 01ce 27D0     		beq	.L67
 915 01d0 13B1     		cbz	r3, .L68
 916 01d2 022B     		cmp	r3, #2
 917 01d4 12D0     		beq	.L69
 918 01d6 3CE7     		b	.L46
 919              	.L68:
 432:main.c        ****             //idle state
 433:main.c        ****             case idleState :;
 434:main.c        ****                 IDLE_Write(1);
 920              		.loc 1 434 0
 921 01d8 0120     		movs	r0, #1
 922 01da FFF7FEFF 		bl	IDLE_Write
 923              	.LVL96:
 435:main.c        ****                 BUSY_Write(!IDLE_Read());
 924              		.loc 1 435 0
ARM GAS  C:\Users\marlowea\AppData\Local\Temp\cc3kbnrh.s 			page 25


 925 01de FFF7FEFF 		bl	IDLE_Read
 926              	.LVL97:
 927 01e2 B0FA80F0 		clz	r0, r0
 928 01e6 4009     		lsrs	r0, r0, #5
 929 01e8 FFF7FEFF 		bl	BUSY_Write
 930              	.LVL98:
 436:main.c        ****                 COLLISION_Write(!IDLE_Read());
 931              		.loc 1 436 0
 932 01ec FFF7FEFF 		bl	IDLE_Read
 933              	.LVL99:
 934 01f0 B0FA80F0 		clz	r0, r0
 935 01f4 4009     		lsrs	r0, r0, #5
 936 01f6 FFF7FEFF 		bl	COLLISION_Write
 937              	.LVL100:
 437:main.c        ****             break;
 938              		.loc 1 437 0
 939 01fa 2AE7     		b	.L46
 940              	.L69:
 438:main.c        ****             //busy state
 439:main.c        ****             case busyState:
 440:main.c        ****                 BUSY_Write(1);
 941              		.loc 1 440 0
 942 01fc 0120     		movs	r0, #1
 943 01fe FFF7FEFF 		bl	BUSY_Write
 944              	.LVL101:
 441:main.c        ****                 IDLE_Write(!BUSY_Read());
 945              		.loc 1 441 0
 946 0202 FFF7FEFF 		bl	BUSY_Read
 947              	.LVL102:
 948 0206 B0FA80F0 		clz	r0, r0
 949 020a 4009     		lsrs	r0, r0, #5
 950 020c FFF7FEFF 		bl	IDLE_Write
 951              	.LVL103:
 442:main.c        ****                 COLLISION_Write(!BUSY_Read());
 952              		.loc 1 442 0
 953 0210 FFF7FEFF 		bl	BUSY_Read
 954              	.LVL104:
 955 0214 B0FA80F0 		clz	r0, r0
 956 0218 4009     		lsrs	r0, r0, #5
 957 021a FFF7FEFF 		bl	COLLISION_Write
 958              	.LVL105:
 443:main.c        ****             break;
 959              		.loc 1 443 0
 960 021e 18E7     		b	.L46
 961              	.L67:
 444:main.c        ****             //collision state
 445:main.c        ****             case collisionState:;
 446:main.c        ****                 COLLISION_Write(1);
 962              		.loc 1 446 0
 963 0220 0120     		movs	r0, #1
 964 0222 FFF7FEFF 		bl	COLLISION_Write
 965              	.LVL106:
 447:main.c        ****                 IDLE_Write(!COLLISION_Read());
 966              		.loc 1 447 0
 967 0226 FFF7FEFF 		bl	COLLISION_Read
 968              	.LVL107:
 969 022a B0FA80F0 		clz	r0, r0
ARM GAS  C:\Users\marlowea\AppData\Local\Temp\cc3kbnrh.s 			page 26


 970 022e 4009     		lsrs	r0, r0, #5
 971 0230 FFF7FEFF 		bl	IDLE_Write
 972              	.LVL108:
 448:main.c        ****                 BUSY_Write(!COLLISION_Read());
 973              		.loc 1 448 0
 974 0234 FFF7FEFF 		bl	COLLISION_Read
 975              	.LVL109:
 976 0238 B0FA80F0 		clz	r0, r0
 977 023c 4009     		lsrs	r0, r0, #5
 978 023e FFF7FEFF 		bl	BUSY_Write
 979              	.LVL110:
 449:main.c        ****             break;
 980              		.loc 1 449 0
 981 0242 06E7     		b	.L46
 982              	.L74:
 983              		.align	2
 984              	.L73:
 985 0244 00000000 		.word	TIMER
 986 0248 00000000 		.word	RISING
 987 024c 00000000 		.word	FALLING
 988 0250 00000000 		.word	Timer_TX_ISR_HANDLER
 989 0254 00000000 		.word	TIMER_RX_ISR
 990 0258 00000000 		.word	BACKOFF
 991 025c 00000000 		.word	UART_device
 992 0260 00000000 		.word	.LANCHOR0
 993 0264 00000000 		.word	.LC0
 994 0268 1C000000 		.word	.LC1
 995 026c 00000000 		.word	SERIAL_BUFFER
 996 0270 00000000 		.word	dataSize
 997 0274 00000000 		.word	SERIAL_RX_BUFFER
 998              		.cfi_endproc
 999              	.LFE69:
 1000              		.size	main, .-main
 1001              		.global	TX_length
 1002              		.global	TX_Addr
 1003              		.global	bitConCatCount
 1004              		.global	RX_Lock
 1005              		.comm	RX_Char,1,1
 1006              		.global	RX_Bit_Counter
 1007              		.comm	RX_DATA,16,4
 1008              		.global	count
 1009              		.global	TX_Bit_Counter
 1010              		.comm	dataSize,4,4
 1011              		.comm	currentChar,1,1
 1012              		.global	dataConvertedReadOutCount
 1013              		.comm	CONVERTED_DATA,8000,4
 1014              		.global	uartConnected
 1015              		.global	UART_RX_DATA_READ_OUT
 1016              		.global	SERIAL_RX_POS
 1017              		.global	SERIAL_POS
 1018              		.comm	SERIAL_RX_BUFFER,500,4
 1019              		.comm	SERIAL_BUFFER,500,4
 1020              		.global	lowFlag
 1021              		.global	systemState
 1022              		.section	.rodata.str1.4,"aMS",%progbits,1
 1023              		.align	2
 1024              	.LC0:
ARM GAS  C:\Users\marlowea\AppData\Local\Temp\cc3kbnrh.s 			page 27


 1025 0000 456E7465 		.ascii	"Enter Address (3 digits): \000"
 1025      72204164 
 1025      64726573 
 1025      73202833 
 1025      20646967 
 1026 001b 00       		.space	1
 1027              	.LC1:
 1028 001c 456E7465 		.ascii	"Enter message: \000"
 1028      72206D65 
 1028      73736167 
 1028      653A2000 
 1029              		.bss
 1030              		.align	2
 1031              		.set	.LANCHOR0,. + 0
 1032              		.type	systemState, %object
 1033              		.size	systemState, 1
 1034              	systemState:
 1035 0000 00       		.space	1
 1036 0001 000000   		.space	3
 1037              		.type	RX_Bit_Counter, %object
 1038              		.size	RX_Bit_Counter, 4
 1039              	RX_Bit_Counter:
 1040 0004 00000000 		.space	4
 1041              		.type	SERIAL_RX_POS, %object
 1042              		.size	SERIAL_RX_POS, 4
 1043              	SERIAL_RX_POS:
 1044 0008 00000000 		.space	4
 1045              		.type	UART_RX_DATA_READ_OUT, %object
 1046              		.size	UART_RX_DATA_READ_OUT, 4
 1047              	UART_RX_DATA_READ_OUT:
 1048 000c 00000000 		.space	4
 1049              		.type	RX_Lock, %object
 1050              		.size	RX_Lock, 4
 1051              	RX_Lock:
 1052 0010 00000000 		.space	4
 1053              		.type	bitConCatCount, %object
 1054              		.size	bitConCatCount, 4
 1055              	bitConCatCount:
 1056 0014 00000000 		.space	4
 1057              		.type	SERIAL_POS, %object
 1058              		.size	SERIAL_POS, 4
 1059              	SERIAL_POS:
 1060 0018 00000000 		.space	4
 1061              		.type	TX_Bit_Counter, %object
 1062              		.size	TX_Bit_Counter, 4
 1063              	TX_Bit_Counter:
 1064 001c 00000000 		.space	4
 1065              		.type	count, %object
 1066              		.size	count, 4
 1067              	count:
 1068 0020 00000000 		.space	4
 1069              		.type	lowFlag, %object
 1070              		.size	lowFlag, 1
 1071              	lowFlag:
 1072 0024 00       		.space	1
 1073 0025 000000   		.space	3
 1074              		.type	uartConnected, %object
ARM GAS  C:\Users\marlowea\AppData\Local\Temp\cc3kbnrh.s 			page 28


 1075              		.size	uartConnected, 4
 1076              	uartConnected:
 1077 0028 00000000 		.space	4
 1078              		.type	TX_Addr, %object
 1079              		.size	TX_Addr, 1
 1080              	TX_Addr:
 1081 002c 00       		.space	1
 1082              		.type	TX_length, %object
 1083              		.size	TX_length, 1
 1084              	TX_length:
 1085 002d 00       		.space	1
 1086 002e 0000     		.space	2
 1087              		.type	dataConvertedReadOutCount, %object
 1088              		.size	dataConvertedReadOutCount, 4
 1089              	dataConvertedReadOutCount:
 1090 0030 00000000 		.space	4
 1091              		.text
 1092              	.Letext0:
 1093              		.file 2 "c:\\program files (x86)\\cypress\\psoc creator\\4.1\\psoc creator\\import\\gnu\\arm\\5.4.
 1094              		.file 3 "c:\\program files (x86)\\cypress\\psoc creator\\4.1\\psoc creator\\import\\gnu\\arm\\5.4.
 1095              		.file 4 "Generated_Source\\PSoC5/cytypes.h"
 1096              		.file 5 "Generated_Source\\PSoC5/UART.h"
 1097              		.file 6 "Generated_Source\\PSoC5/core_cm3.h"
 1098              		.file 7 "Generated_Source\\PSoC5/TIMER_RX.h"
 1099              		.file 8 "Generated_Source\\PSoC5/Rx.h"
 1100              		.file 9 "Generated_Source\\PSoC5/TP_RX_SMPL.h"
 1101              		.file 10 "Generated_Source\\PSoC5/TX.h"
 1102              		.file 11 "Generated_Source\\PSoC5/CyLib.h"
 1103              		.file 12 "Generated_Source\\PSoC5/BACKOFF.h"
 1104              		.file 13 "Generated_Source\\PSoC5/PRS.h"
 1105              		.file 14 "Generated_Source\\PSoC5/Timer_1.h"
 1106              		.file 15 "Generated_Source\\PSoC5/UART_cdc.h"
 1107              		.file 16 "Generated_Source\\PSoC5/TimerISR.h"
 1108              		.file 17 "Generated_Source\\PSoC5/INT_RISING.h"
 1109              		.file 18 "Generated_Source\\PSoC5/INT_FALLING.h"
 1110              		.file 19 "Generated_Source\\PSoC5/Timer_TX.h"
 1111              		.file 20 "Generated_Source\\PSoC5/Timer_TX_ISR.h"
 1112              		.file 21 "Generated_Source\\PSoC5/TIMER_RX_ISR.h"
 1113              		.file 22 "Generated_Source\\PSoC5/BACKOFF_ISR.h"
 1114              		.file 23 "Generated_Source\\PSoC5/IDLE.h"
 1115              		.file 24 "Generated_Source\\PSoC5/BUSY.h"
 1116              		.file 25 "Generated_Source\\PSoC5/COLLISION.h"